; Function Attrs: mustprogress nounwind uwtable
define hidden void @_ZN28ShenandoahReferenceProcessor25abandon_partial_discoveryEv(ptr noundef nonnull align 8 dereferenceable(80) %0) local_unnamed_addr #5 align 2 {
  %2 = load ptr, ptr @_ZN8Universe14_collectedHeapE, align 8
  %3 = tail call noundef i32 @_ZN14ShenandoahHeap11max_workersEv(ptr noundef nonnull align 8 dereferenceable(2657) %2) #14
  %.not26 = icmp eq i32 %3, 0
  br i1 %.not26, label %._crit_edge, label %.lr.ph

.lr.ph:                                           ; preds = %1
  %4 = getelementptr inbounds i8, ptr %0, i64 16
  %wide.trip.count = zext i32 %3 to i64
  br label %5

5:                                                ; preds = %.lr.ph, %_ZN28ShenandoahReferenceProcessor21clean_discovered_listI9narrowOopEEvPT_.exit
  %indvars.iv = phi i64 [ 0, %.lr.ph ], [ %indvars.iv.next, %_ZN28ShenandoahReferenceProcessor21clean_discovered_listI9narrowOopEEvPT_.exit ]
  %6 = load i8, ptr @UseCompressedOops, align 1
  %7 = trunc i8 %6 to i1
  %8 = load ptr, ptr %4, align 8
  %9 = getelementptr inbounds %class.ShenandoahRefProcThreadLocal, ptr %8, i64 %indvars.iv
  br i1 %7, label %10, label %24

10:                                               ; preds = %5
  %.056.i = load i32, ptr %9, align 4
  %11 = icmp eq i32 %.056.i, 0
  br i1 %11, label %_ZN28ShenandoahReferenceProcessor21clean_discovered_listI9narrowOopEEvPT_.exit, label %.lr.ph.i

.lr.ph.i:                                         ; preds = %10, %.lr.ph.i
  %.058.i = phi i32 [ %.05.i, %.lr.ph.i ], [ %.056.i, %10 ]
  %.07.i = phi ptr [ %22, %.lr.ph.i ], [ %9, %10 ]
  %12 = load ptr, ptr @_ZN14CompressedOops11_narrow_oopE, align 8
  %13 = ptrtoint ptr %12 to i64
  %14 = zext i32 %.058.i to i64
  %15 = load i32, ptr getelementptr inbounds (i8, ptr @_ZN14CompressedOops11_narrow_oopE, i64 8), align 8
  %16 = zext nneg i32 %15 to i64
  %17 = shl i64 %14, %16
  %18 = add i64 %17, %13
  store i32 0, ptr %.07.i, align 4
  %19 = load i32, ptr @_ZN23java_lang_ref_Reference18_discovered_offsetE, align 4
  %20 = sext i32 %19 to i64
  %21 = add nsw i64 %18, %20
  %22 = inttoptr i64 %21 to ptr
  %.05.i = load i32, ptr %22, align 4
  %23 = icmp eq i32 %.05.i, 0
  br i1 %23, label %_ZN28ShenandoahReferenceProcessor21clean_discovered_listI9narrowOopEEvPT_.exit, label %.lr.ph.i, !llvm.loop !20

24:                                               ; preds = %5
  %.067.i = load ptr, ptr %9, align 8
  %25 = icmp eq ptr %.067.i, null
  br i1 %25, label %_ZN28ShenandoahReferenceProcessor21clean_discovered_listI9narrowOopEEvPT_.exit, label %.lr.ph.i10

.lr.ph.i10:                                       ; preds = %24, %.lr.ph.i10
  %.069.i = phi ptr [ %.06.i, %.lr.ph.i10 ], [ %.067.i, %24 ]
  %.08.i = phi ptr [ %30, %.lr.ph.i10 ], [ %9, %24 ]
  store ptr null, ptr %.08.i, align 8
  %26 = load i32, ptr @_ZN23java_lang_ref_Reference18_discovered_offsetE, align 4
  %27 = ptrtoint ptr %.069.i to i64
  %28 = sext i32 %26 to i64
  %29 = add nsw i64 %28, %27
  %30 = inttoptr i64 %29 to ptr
  %.06.i = load ptr, ptr %30, align 8
  %31 = icmp eq ptr %.06.i, null
  br i1 %31, label %_ZN28ShenandoahReferenceProcessor21clean_discovered_listI9narrowOopEEvPT_.exit, label %.lr.ph.i10, !llvm.loop !21

_ZN28ShenandoahReferenceProcessor21clean_discovered_listI9narrowOopEEvPT_.exit: ; preds = %.lr.ph.i10, %.lr.ph.i, %24, %10
  %indvars.iv.next = add nuw nsw i64 %indvars.iv, 1
  %exitcond.not = icmp eq i64 %indvars.iv.next, %wide.trip.count
  br i1 %exitcond.not, label %._crit_edge, label %5, !llvm.loop !22

._crit_edge:                                      ; preds = %_ZN28ShenandoahReferenceProcessor21clean_discovered_listI9narrowOopEEvPT_.exit, %1
  %32 = getelementptr inbounds i8, ptr %0, i64 24
  %33 = load ptr, ptr %32, align 8
  %.not = icmp eq ptr %33, null
  br i1 %.not, label %_ZN28ShenandoahReferenceProcessor21clean_discovered_listI9narrowOopEEvPT_.exit16, label %34

34:                                               ; preds = %._crit_edge
  store ptr null, ptr %32, align 8
  %35 = load i8, ptr @UseCompressedOops, align 1
  %36 = trunc i8 %35 to i1
  %37 = load i32, ptr @_ZN23java_lang_ref_Reference18_discovered_offsetE, align 4
  %38 = ptrtoint ptr %33 to i64
  %39 = sext i32 %37 to i64
  %40 = add nsw i64 %39, %38
  %41 = inttoptr i64 %40 to ptr
  br i1 %36, label %42, label %56

42:                                               ; preds = %34
  %.056.i11 = load i32, ptr %41, align 4
  %43 = icmp eq i32 %.056.i11, 0
  br i1 %43, label %_ZN28ShenandoahReferenceProcessor21clean_discovered_listI9narrowOopEEvPT_.exit16, label %.lr.ph.i12

.lr.ph.i12:                                       ; preds = %42, %.lr.ph.i12
  %.058.i13 = phi i32 [ %.05.i15, %.lr.ph.i12 ], [ %.056.i11, %42 ]
  %.07.i14 = phi ptr [ %54, %.lr.ph.i12 ], [ %41, %42 ]
  %44 = load ptr, ptr @_ZN14CompressedOops11_narrow_oopE, align 8
  %45 = ptrtoint ptr %44 to i64
  %46 = zext i32 %.058.i13 to i64
  %47 = load i32, ptr getelementptr inbounds (i8, ptr @_ZN14CompressedOops11_narrow_oopE, i64 8), align 8
  %48 = zext nneg i32 %47 to i64
  %49 = shl i64 %46, %48
  %50 = add i64 %49, %45
  store i32 0, ptr %.07.i14, align 4
  %51 = load i32, ptr @_ZN23java_lang_ref_Reference18_discovered_offsetE, align 4
  %52 = sext i32 %51 to i64
  %53 = add nsw i64 %50, %52
  %54 = inttoptr i64 %53 to ptr
  %.05.i15 = load i32, ptr %54, align 4
  %55 = icmp eq i32 %.05.i15, 0
  br i1 %55, label %_ZN28ShenandoahReferenceProcessor21clean_discovered_listI9narrowOopEEvPT_.exit16, label %.lr.ph.i12, !llvm.loop !20

56:                                               ; preds = %34
  %.067.i17 = load ptr, ptr %41, align 8
  %57 = icmp eq ptr %.067.i17, null
  br i1 %57, label %_ZN28ShenandoahReferenceProcessor21clean_discovered_listI9narrowOopEEvPT_.exit16, label %.lr.ph.i18

.lr.ph.i18:                                       ; preds = %56, %.lr.ph.i18
  %.069.i19 = phi ptr [ %.06.i21, %.lr.ph.i18 ], [ %.067.i17, %56 ]
  %.08.i20 = phi ptr [ %62, %.lr.ph.i18 ], [ %41, %56 ]
  store ptr null, ptr %.08.i20, align 8
  %58 = load i32, ptr @_ZN23java_lang_ref_Reference18_discovered_offsetE, align 4
  %59 = ptrtoint ptr %.069.i19 to i64
  %60 = sext i32 %58 to i64
  %61 = add nsw i64 %60, %59
  %62 = inttoptr i64 %61 to ptr
  %.06.i21 = load ptr, ptr %62, align 8
  %63 = icmp eq ptr %.06.i21, null
  br i1 %63, label %_ZN28ShenandoahReferenceProcessor21clean_discovered_listI9narrowOopEEvPT_.exit16, label %.lr.ph.i18, !llvm.loop !21

_ZN28ShenandoahReferenceProcessor21clean_discovered_listI9narrowOopEEvPT_.exit16: ; preds = %.lr.ph.i18, %.lr.ph.i12, %56, %42, %._crit_edge
  %64 = getelementptr inbounds i8, ptr %0, i64 32
  store ptr %32, ptr %64, align 8
  ret void
}